ccopy_reg
_reconstructor
p1
(csklearn.linear_model.stochastic_gradient
SGDClassifier
p2
c__builtin__
object
p3
NtRp4
(dp5
S'warm_start'
p6
I00
sS'loss'
p7
S'hinge'
p8
sS'C'
F1
sS'classes_'
p9
NsS'shuffle'
p10
I00
sS'verbose'
p11
I0
sS'n_jobs'
p12
I1
sS'fit_intercept'
p13
I01
sS'epsilon'
p14
F0.10000000000000001
sS'learning_rate'
p15
S'optimal'
p16
sS'n_iter'
p17
I5
sS'penalty'
p18
S'l2'
p19
sS'power_t'
p20
F0.5
sS'random_state'
p21
NsS't_'
p22
NsS'eta0'
p23
F0
sS'l1_ratio'
p24
F0.14999999999999999
sS'alpha'
p25
F0.0001
sS'coef_'
p26
NsS'class_weight'
p27
Nsb.